target datalayout = "e-m:e-p270:32:32-p271:32:32-p272:64:64-i64:64-i128:128-f80:128-n8:16:32:64-S128"
target triple = "x86_64-unknown-linux-gnu"

%union.anon = type { %struct.QTailQLink }
%struct.QTailQLink = type { ptr, ptr }
%struct.FWBootEntry = type { %union.anon.0, i32, ptr, ptr }
%union.anon.0 = type { %struct.QTailQLink }
%struct.BootIndexProperty = type { ptr, ptr, ptr }

@.str = private unnamed_addr constant [28 x i8] c"../qemu/system/bootdevice.c\00", align 1
@fw_boot_order = internal global %union.anon { %struct.QTailQLink { ptr null, ptr @fw_boot_order } }, align 8
@__func__.check_boot_index = private unnamed_addr constant [17 x i8] c"check_boot_index\00", align 1
@.str.4 = private unnamed_addr constant [39 x i8] c"The bootindex %d has already been used\00", align 1

; Function Attrs: nounwind sspstrong uwtable
define dso_local void @check_boot_index(i32 noundef %bootindex, ptr noundef %errp) #0 {
entry:
  %bootindex.addr = alloca i32, align 4
  %errp.addr = alloca ptr, align 8
  %i = alloca ptr, align 8
  store i32 %bootindex, ptr %bootindex.addr, align 4
  store ptr %errp, ptr %errp.addr, align 8
  %0 = load i32, ptr %bootindex.addr, align 4
  %cmp = icmp sge i32 %0, 0
  br i1 %cmp, label %if.then, label %if.end4

if.then:                                          ; preds = %entry
  %1 = load ptr, ptr @fw_boot_order, align 8
  store ptr %1, ptr %i, align 8
  br label %for.cond

for.cond:                                         ; preds = %for.inc, %if.then
  %2 = load ptr, ptr %i, align 8
  %tobool = icmp ne ptr %2, null
  br i1 %tobool, label %for.body, label %for.end

for.body:                                         ; preds = %for.cond
  %3 = load ptr, ptr %i, align 8
  %bootindex1 = getelementptr inbounds %struct.FWBootEntry, ptr %3, i32 0, i32 1
  %4 = load i32, ptr %bootindex1, align 8
  %5 = load i32, ptr %bootindex.addr, align 4
  %cmp2 = icmp eq i32 %4, %5
  br i1 %cmp2, label %if.then3, label %if.end

if.then3:                                         ; preds = %for.body
  %6 = load ptr, ptr %errp.addr, align 8
  %7 = load i32, ptr %bootindex.addr, align 4
  call void (ptr, ptr, i32, ptr, ptr, ...) @error_setg_internal(ptr noundef %6, ptr noundef @.str, i32 noundef 128, ptr noundef @__func__.check_boot_index, ptr noundef @.str.4, i32 noundef %7)
  br label %if.end4

if.end:                                           ; preds = %for.body
  br label %for.inc

for.inc:                                          ; preds = %if.end
  %8 = load ptr, ptr %i, align 8
  %link = getelementptr inbounds %struct.FWBootEntry, ptr %8, i32 0, i32 0
  %9 = load ptr, ptr %link, align 8
  store ptr %9, ptr %i, align 8
  br label %for.cond, !llvm.loop !7

for.end:                                          ; preds = %for.cond
  br label %if.end4

if.end4:                                          ; preds = %for.end, %if.then3, %entry
  ret void
}

; Function Attrs: nounwind sspstrong uwtable
define internal void @device_set_bootindex(ptr noundef %obj, ptr noundef %v, ptr noundef %name, ptr noundef %opaque, ptr noundef %errp) #0 {
entry:
  %obj.addr = alloca ptr, align 8
  %v.addr = alloca ptr, align 8
  %name.addr = alloca ptr, align 8
  %opaque.addr = alloca ptr, align 8
  %errp.addr = alloca ptr, align 8
  %prop = alloca ptr, align 8
  %boot_index = alloca i32, align 4
  %local_err = alloca ptr, align 8
  store ptr %obj, ptr %obj.addr, align 8
  store ptr %v, ptr %v.addr, align 8
  store ptr %name, ptr %name.addr, align 8
  store ptr %opaque, ptr %opaque.addr, align 8
  store ptr %errp, ptr %errp.addr, align 8
  %0 = load ptr, ptr %opaque.addr, align 8
  store ptr %0, ptr %prop, align 8
  store ptr null, ptr %local_err, align 8
  %1 = load ptr, ptr %v.addr, align 8
  %2 = load ptr, ptr %name.addr, align 8
  %3 = load ptr, ptr %errp.addr, align 8
  %call = call zeroext i1 @visit_type_int32(ptr noundef %1, ptr noundef %2, ptr noundef %boot_index, ptr noundef %3)
  br i1 %call, label %if.end, label %if.then

if.then:                                          ; preds = %entry
  br label %return

if.end:                                           ; preds = %entry
  %4 = load i32, ptr %boot_index, align 4
  call void @check_boot_index(i32 noundef %4, ptr noundef %local_err)
  %5 = load ptr, ptr %local_err, align 8
  %tobool = icmp ne ptr %5, null
  br i1 %tobool, label %if.then1, label %if.end2

if.then1:                                         ; preds = %if.end
  %6 = load ptr, ptr %errp.addr, align 8
  %7 = load ptr, ptr %local_err, align 8
  call void @error_propagate(ptr noundef %6, ptr noundef %7)
  br label %return

if.end2:                                          ; preds = %if.end
  %8 = load i32, ptr %boot_index, align 4
  %9 = load ptr, ptr %prop, align 8
  %bootindex = getelementptr inbounds %struct.BootIndexProperty, ptr %9, i32 0, i32 0
  %10 = load ptr, ptr %bootindex, align 8
  store i32 %8, ptr %10, align 4
  %11 = load ptr, ptr %prop, align 8
  %bootindex3 = getelementptr inbounds %struct.BootIndexProperty, ptr %11, i32 0, i32 0
  %12 = load ptr, ptr %bootindex3, align 8
  %13 = load i32, ptr %12, align 4
  %14 = load ptr, ptr %prop, align 8
  %dev = getelementptr inbounds %struct.BootIndexProperty, ptr %14, i32 0, i32 2
  %15 = load ptr, ptr %dev, align 8
  %16 = load ptr, ptr %prop, align 8
  %suffix = getelementptr inbounds %struct.BootIndexProperty, ptr %16, i32 0, i32 1
  %17 = load ptr, ptr %suffix, align 8
  call void @add_boot_device_path(i32 noundef %13, ptr noundef %15, ptr noundef %17)
  br label %return

return:                                           ; preds = %if.end2, %if.then1, %if.then
  ret void
}