; Function Attrs: nounwind sspstrong uwtable
define internal void @device_set_bootindex(ptr readnone captures(none) %obj, ptr noundef %v, ptr noundef %name, ptr noundef readonly captures(none) %opaque, ptr noundef %errp) #1 {
entry:
  %boot_index = alloca i32, align 4
  %local_err = alloca ptr, align 8
  store ptr null, ptr %local_err, align 8
  %call = call zeroext i1 @visit_type_int32(ptr noundef %v, ptr noundef %name, ptr noundef nonnull %boot_index, ptr noundef %errp) #11
  br i1 %call, label %if.end, label %return

if.end:                                           ; preds = %entry
  %0 = load i32, ptr %boot_index, align 4
  %cmp.i = icmp sgt i32 %0, -1
  br i1 %cmp.i, label %for.cond.i, label %if.end2

for.cond.i:                                       ; preds = %if.end, %for.body.i
  %i.0.in.i = phi ptr [ %i.0.i, %for.body.i ], [ @fw_boot_order, %if.end ]
  %i.0.i = load ptr, ptr %i.0.in.i, align 8
  %tobool.not.i = icmp eq ptr %i.0.i, null
  br i1 %tobool.not.i, label %if.end2, label %for.body.i

for.body.i:                                       ; preds = %for.cond.i
  %bootindex1.i = getelementptr inbounds nuw i8, ptr %i.0.i, i64 16
  %1 = load i32, ptr %bootindex1.i, align 8
  %cmp2.i = icmp eq i32 %1, %0
  br i1 %cmp2.i, label %check_boot_index.exit, label %for.cond.i, !llvm.loop !7

check_boot_index.exit:                            ; preds = %for.body.i
  call void (ptr, ptr, i32, ptr, ptr, ...) @error_setg_internal(ptr noundef nonnull %local_err, ptr noundef nonnull @.str, i32 noundef 128, ptr noundef nonnull @__func__.check_boot_index, ptr noundef nonnull @.str.4, i32 noundef %0) #11
  %.pre = load ptr, ptr %local_err, align 8
  %tobool.not = icmp eq ptr %.pre, null
  br i1 %tobool.not, label %if.end2, label %if.then1

if.then1:                                         ; preds = %check_boot_index.exit
  call void @error_propagate(ptr noundef %errp, ptr noundef nonnull %.pre) #11
  br label %return

if.end2:                                          ; preds = %for.cond.i, %if.end, %check_boot_index.exit
  %2 = load i32, ptr %boot_index, align 4
  %3 = load ptr, ptr %opaque, align 8
  store i32 %2, ptr %3, align 4
  %4 = load ptr, ptr %opaque, align 8
  %5 = load i32, ptr %4, align 4
  %dev = getelementptr inbounds nuw i8, ptr %opaque, i64 16
  %6 = load ptr, ptr %dev, align 8
  %suffix = getelementptr inbounds nuw i8, ptr %opaque, i64 8
  %7 = load ptr, ptr %suffix, align 8
  call void @add_boot_device_path(i32 noundef %5, ptr noundef %6, ptr noundef %7)
  br label %return

return:                                           ; preds = %entry, %if.end2, %if.then1
  ret void
}